target datalayout = "e-m:e-p270:32:32-p271:32:32-p272:64:64-i64:64-i128:128-f80:128-n8:16:32:64-S128"
target triple = "x86_64-pc-linux-gnu"

; Function Attrs: nounwind uwtable
define i64 @H5VM_array_offset_pre(i32 noundef %0, ptr noundef %1, ptr noundef %2) #0 {
  %4 = alloca i32, align 4
  %5 = alloca ptr, align 8
  %6 = alloca ptr, align 8
  %7 = alloca i32, align 4
  %8 = alloca i64, align 8
  store i32 %0, ptr %4, align 4
  store ptr %1, ptr %5, align 8
  store ptr %2, ptr %6, align 8
  store i32 0, ptr %7, align 4
  store i64 0, ptr %8, align 8
  br label %9

9:                                                ; preds = %27, %3
  %10 = load i32, ptr %7, align 4
  %11 = load i32, ptr %4, align 4
  %12 = icmp ult i32 %10, %11
  br i1 %12, label %13, label %30

13:                                               ; preds = %9
  %14 = load ptr, ptr %5, align 8
  %15 = load i32, ptr %7, align 4
  %16 = zext i32 %15 to i64
  %17 = getelementptr inbounds i64, ptr %14, i64 %16
  %18 = load i64, ptr %17, align 8
  %19 = load ptr, ptr %6, align 8
  %20 = load i32, ptr %7, align 4
  %21 = zext i32 %20 to i64
  %22 = getelementptr inbounds i64, ptr %19, i64 %21
  %23 = load i64, ptr %22, align 8
  %24 = mul i64 %18, %23
  %25 = load i64, ptr %8, align 8
  %26 = add i64 %25, %24
  store i64 %26, ptr %8, align 8
  br label %27

27:                                               ; preds = %13
  %28 = load i32, ptr %7, align 4
  %29 = add i32 %28, 1
  store i32 %29, ptr %7, align 4
  br label %9

30:                                               ; preds = %9
  %31 = load i64, ptr %8, align 8
  ret i64 %31
}

; Function Attrs: nounwind uwtable
define void @H5VM_array_down(i32 noundef %0, ptr noundef %1, ptr noundef %2) #0 {
  %4 = alloca i32, align 4
  %5 = alloca ptr, align 8
  %6 = alloca ptr, align 8
  %7 = alloca i64, align 8
  %8 = alloca i32, align 4
  store i32 %0, ptr %4, align 4
  store ptr %1, ptr %5, align 8
  store ptr %2, ptr %6, align 8
  %9 = load i32, ptr %4, align 4
  %10 = sub i32 %9, 1
  store i32 %10, ptr %8, align 4
  store i64 1, ptr %7, align 8
  br label %11

11:                                               ; preds = %27, %3
  %12 = load i32, ptr %8, align 4
  %13 = icmp sge i32 %12, 0
  br i1 %13, label %14, label %30

14:                                               ; preds = %11
  %15 = load i64, ptr %7, align 8
  %16 = load ptr, ptr %6, align 8
  %17 = load i32, ptr %8, align 4
  %18 = sext i32 %17 to i64
  %19 = getelementptr inbounds i64, ptr %16, i64 %18
  store i64 %15, ptr %19, align 8
  %20 = load ptr, ptr %5, align 8
  %21 = load i32, ptr %8, align 4
  %22 = sext i32 %21 to i64
  %23 = getelementptr inbounds i64, ptr %20, i64 %22
  %24 = load i64, ptr %23, align 8
  %25 = load i64, ptr %7, align 8
  %26 = mul i64 %25, %24
  store i64 %26, ptr %7, align 8
  br label %27

27:                                               ; preds = %14
  %28 = load i32, ptr %8, align 4
  %29 = add nsw i32 %28, -1
  store i32 %29, ptr %8, align 4
  br label %11

30:                                               ; preds = %11
  ret void
}

; Function Attrs: nounwind uwtable
define i64 @H5VM_array_offset(i32 noundef %0, ptr noundef %1, ptr noundef %2) #0 {
  %4 = alloca i32, align 4
  %5 = alloca ptr, align 8
  %6 = alloca ptr, align 8
  %7 = alloca [33 x i64], align 16
  %8 = alloca i64, align 8
  store i32 %0, ptr %4, align 4
  store ptr %1, ptr %5, align 8
  store ptr %2, ptr %6, align 8
  %9 = load i32, ptr %4, align 4
  %10 = load ptr, ptr %5, align 8
  %11 = getelementptr inbounds [33 x i64], ptr %7, i64 0, i64 0
  call void @H5VM_array_down(i32 noundef %9, ptr noundef %10, ptr noundef %11)
  %12 = load i32, ptr %4, align 4
  %13 = getelementptr inbounds [33 x i64], ptr %7, i64 0, i64 0
  %14 = load ptr, ptr %6, align 8
  %15 = call i64 @H5VM_array_offset_pre(i32 noundef %12, ptr noundef %13, ptr noundef %14)
  store i64 %15, ptr %8, align 8
  %16 = load i64, ptr %8, align 8
  ret i64 %16
}