; Function Attrs: nofree norecurse nosync nounwind memory(argmem: read) uwtable
define i64 @H5VM_array_offset(i32 noundef %0, ptr nocapture noundef readonly %1, ptr nocapture noundef readonly %2) local_unnamed_addr #1 {
  %4 = alloca [33 x i64], align 16
  %.09.i = add i32 %0, -1
  %5 = icmp sgt i32 %.09.i, -1
  br i1 %5, label %.lr.ph.preheader.i, label %H5VM_array_down.exit

.lr.ph.preheader.i:                               ; preds = %3
  %6 = zext nneg i32 %.09.i to i64
  br label %.lr.ph.i

.lr.ph.i:                                         ; preds = %.lr.ph.i, %.lr.ph.preheader.i
  %indvars.iv.i = phi i64 [ %6, %.lr.ph.preheader.i ], [ %indvars.iv.next.i, %.lr.ph.i ]
  %.0810.i = phi i64 [ 1, %.lr.ph.preheader.i ], [ %10, %.lr.ph.i ]
  %7 = getelementptr inbounds i64, ptr %4, i64 %indvars.iv.i
  store i64 %.0810.i, ptr %7, align 8
  %8 = getelementptr inbounds i64, ptr %1, i64 %indvars.iv.i
  %9 = load i64, ptr %8, align 8
  %10 = mul i64 %9, %.0810.i
  %indvars.iv.next.i = add nsw i64 %indvars.iv.i, -1
  %.not.i = icmp eq i64 %indvars.iv.i, 0
  br i1 %.not.i, label %H5VM_array_down.exit, label %.lr.ph.i

H5VM_array_down.exit:                             ; preds = %.lr.ph.i, %3
  %.not.i4 = icmp eq i32 %0, 0
  br i1 %.not.i4, label %H5VM_array_offset_pre.exit, label %.lr.ph.preheader.i5

.lr.ph.preheader.i5:                              ; preds = %H5VM_array_down.exit
  %wide.trip.count.i = zext i32 %0 to i64
  br label %.lr.ph.i6

.lr.ph.i6:                                        ; preds = %.lr.ph.i6, %.lr.ph.preheader.i5
  %indvars.iv.i7 = phi i64 [ 0, %.lr.ph.preheader.i5 ], [ %indvars.iv.next.i8, %.lr.ph.i6 ]
  %.010.i = phi i64 [ 0, %.lr.ph.preheader.i5 ], [ %16, %.lr.ph.i6 ]
  %11 = getelementptr inbounds i64, ptr %4, i64 %indvars.iv.i7
  %12 = load i64, ptr %11, align 8
  %13 = getelementptr inbounds i64, ptr %2, i64 %indvars.iv.i7
  %14 = load i64, ptr %13, align 8
  %15 = mul i64 %14, %12
  %16 = add i64 %15, %.010.i
  %indvars.iv.next.i8 = add nuw nsw i64 %indvars.iv.i7, 1
  %exitcond.not.i = icmp eq i64 %indvars.iv.next.i8, %wide.trip.count.i
  br i1 %exitcond.not.i, label %H5VM_array_offset_pre.exit, label %.lr.ph.i6

H5VM_array_offset_pre.exit:                       ; preds = %.lr.ph.i6, %H5VM_array_down.exit
  %.0.lcssa.i = phi i64 [ 0, %H5VM_array_down.exit ], [ %16, %.lr.ph.i6 ]
  ret i64 %.0.lcssa.i
}